target datalayout = "e-m:e-p270:32:32-p271:32:32-p272:64:64-i64:64-i128:128-f80:128-n8:16:32:64-S128"
target triple = "x86_64-pc-linux-gnu"

%struct._PySeqLock = type { i32 }

; Function Attrs: nounwind uwtable
define internal void @_Py_yield() #0 {
  %1 = call i32 @sched_yield() #7
  ret void
}

; Function Attrs: inlinehint nounwind uwtable
define internal i32 @_Py_atomic_load_uint32_relaxed(ptr noundef %0) #2 {
  %2 = alloca ptr, align 8
  %3 = alloca i32, align 4
  store ptr %0, ptr %2, align 8, !tbaa !42
  %4 = load ptr, ptr %2, align 8, !tbaa !42
  %5 = load atomic i32, ptr %4 monotonic, align 4
  store i32 %5, ptr %3, align 4
  %6 = load i32, ptr %3, align 4, !tbaa !11
  ret i32 %6
}

; Function Attrs: inlinehint nounwind uwtable
define internal void @_Py_atomic_fence_acquire() #2 {
  fence acquire
  ret void
}

; Function Attrs: nounwind uwtable
define dso_local i32 @_PySeqLock_EndRead(ptr noundef %0, i32 noundef %1) #0 {
  %3 = alloca i32, align 4
  %4 = alloca ptr, align 8
  %5 = alloca i32, align 4
  store ptr %0, ptr %4, align 8, !tbaa !25
  store i32 %1, ptr %5, align 4, !tbaa !11
  call void @_Py_atomic_fence_acquire()
  %6 = load ptr, ptr %4, align 8, !tbaa !25
  %7 = getelementptr inbounds nuw %struct._PySeqLock, ptr %6, i32 0, i32 0
  %8 = call i32 @_Py_atomic_load_uint32_relaxed(ptr noundef %7)
  %9 = load i32, ptr %5, align 4, !tbaa !11
  %10 = icmp eq i32 %8, %9
  br i1 %10, label %11, label %12

11:                                               ; preds = %2
  store i32 1, ptr %3, align 4
  br label %13

12:                                               ; preds = %2
  call void @_Py_yield()
  store i32 0, ptr %3, align 4
  br label %13

13:                                               ; preds = %12, %11
  %14 = load i32, ptr %3, align 4
  ret i32 %14
}