; Function Attrs: nounwind uwtable
define dso_local range(i32 0, 2) i32 @_PySeqLock_EndRead(ptr noundef readonly captures(none) %0, i32 noundef %1) local_unnamed_addr #0 {
  fence acquire
  %3 = load atomic i32, ptr %0 monotonic, align 4
  %4 = icmp eq i32 %3, %1
  br i1 %4, label %7, label %5

5:                                                ; preds = %2
  %6 = tail call i32 @sched_yield() #8
  br label %7

7:                                                ; preds = %2, %5
  %.0 = phi i32 [ 0, %5 ], [ 1, %2 ]
  ret i32 %.0
}